; Function Attrs: nounwind uwtable
define ptr @l_Lean_CodeAction_initFn____x40_Lean_Server_CodeActions_Attr___hyg_83_(ptr noundef %0) local_unnamed_addr #0 {
  %2 = load ptr, ptr @l_Lean_CodeAction_initFn____x40_Lean_Server_CodeActions_Attr___hyg_83____closed__4, align 8, !tbaa !4
  %3 = load ptr, ptr @l_Lean_CodeAction_initFn____x40_Lean_Server_CodeActions_Attr___hyg_83____closed__3, align 8, !tbaa !4
  tail call void @lean_inc_heartbeat() #5
  %4 = tail call noalias ptr @mi_malloc_small(i64 noundef 40) #5
  %5 = icmp eq ptr %4, null
  br i1 %5, label %6, label %lean_alloc_closure.exit

6:                                                ; preds = %1
  tail call void @lean_internal_panic_out_of_memory() #6
  unreachable

lean_alloc_closure.exit:                          ; preds = %1
  %7 = getelementptr inbounds nuw i8, ptr %4, i64 4
  store i32 1, ptr %4, align 4, !tbaa !8
  store i32 -184549336, ptr %7, align 4
  %8 = getelementptr inbounds nuw i8, ptr %4, i64 8
  store ptr @l_Lean_CodeAction_initFn____x40_Lean_Server_CodeActions_Attr___hyg_83____lambda__1___boxed, ptr %8, align 8, !tbaa !4
  %9 = getelementptr inbounds nuw i8, ptr %4, i64 16
  store i16 5, ptr %9, align 8, !tbaa !14
  %10 = getelementptr inbounds nuw i8, ptr %4, i64 18
  store i16 2, ptr %10, align 2, !tbaa !14
  %11 = getelementptr inbounds nuw i8, ptr %4, i64 24
  store ptr %2, ptr %11, align 8, !tbaa !4
  %12 = getelementptr inbounds nuw i8, ptr %4, i64 32
  store ptr %3, ptr %12, align 8, !tbaa !4
  %13 = load ptr, ptr @l_Lean_CodeAction_initFn____x40_Lean_Server_CodeActions_Attr___hyg_83____closed__2, align 8, !tbaa !4
  %14 = load ptr, ptr @l_Lean_CodeAction_initFn____x40_Lean_Server_CodeActions_Attr___hyg_83____closed__5, align 8, !tbaa !4
  %15 = load ptr, ptr @l_Lean_CodeAction_initFn____x40_Lean_Server_CodeActions_Attr___hyg_83____closed__6, align 8, !tbaa !4
  %16 = load ptr, ptr @l_Lean_CodeAction_initFn____x40_Lean_Server_CodeActions_Attr___hyg_83____closed__7, align 8, !tbaa !4
  %17 = load ptr, ptr @l_Lean_CodeAction_initFn____x40_Lean_Server_CodeActions_Attr___hyg_83____closed__8, align 8, !tbaa !4
  tail call void @lean_inc_heartbeat() #5
  %18 = tail call noalias ptr @mi_malloc_small(i64 noundef 80) #5
  %19 = icmp eq ptr %18, null
  br i1 %19, label %20, label %lean_alloc_ctor.exit

20:                                               ; preds = %lean_alloc_closure.exit
  tail call void @lean_internal_panic_out_of_memory() #6
  unreachable

lean_alloc_ctor.exit:                             ; preds = %lean_alloc_closure.exit
  %21 = getelementptr inbounds nuw i8, ptr %18, i64 4
  %22 = getelementptr inbounds nuw i8, ptr %18, i64 72
  store i64 2, ptr %22, align 8, !tbaa !12
  store i32 1, ptr %18, align 4, !tbaa !8
  store i32 524368, ptr %21, align 4
  %23 = getelementptr inbounds nuw i8, ptr %18, i64 8
  store ptr %13, ptr %23, align 8, !tbaa !4
  %24 = getelementptr inbounds nuw i8, ptr %18, i64 16
  store ptr %14, ptr %24, align 8, !tbaa !4
  %25 = getelementptr inbounds nuw i8, ptr %18, i64 24
  store ptr %4, ptr %25, align 8, !tbaa !4
  %26 = getelementptr inbounds nuw i8, ptr %18, i64 32
  store ptr %15, ptr %26, align 8, !tbaa !4
  %27 = getelementptr inbounds nuw i8, ptr %18, i64 40
  store ptr %16, ptr %27, align 8, !tbaa !4
  %28 = getelementptr inbounds nuw i8, ptr %18, i64 48
  store ptr %16, ptr %28, align 8, !tbaa !4
  %29 = getelementptr inbounds nuw i8, ptr %18, i64 56
  store ptr %17, ptr %29, align 8, !tbaa !4
  %30 = getelementptr inbounds nuw i8, ptr %18, i64 64
  store ptr inttoptr (i64 1 to ptr), ptr %30, align 8, !tbaa !4
  %31 = tail call ptr @l_Lean_registerPersistentEnvExtensionUnsafe___rarg(ptr noundef nonnull %18, ptr noundef %0) #5
  ret ptr %31
}